; Function Attrs: null_pointer_is_valid sspstrong uwtable
define internal i32 @dissect_nbap_PayloadCRC_PresenceIndicator(ptr noundef %0, i32 noundef %1, ptr noundef %2, ptr noundef %3, i32 noundef %4) #0 {
  %6 = alloca i32, align 4
  call void @llvm.lifetime.start.p0(i64 4, ptr nonnull %6) #9
  %7 = call i32 @dissect_per_enumerated(ptr noundef %0, i32 noundef %1, ptr noundef %2, ptr noundef %3, i32 noundef %4, i32 noundef 2, ptr noundef nonnull %6, i1 noundef zeroext true, i32 noundef 0, ptr noundef null)
  %8 = load i32, ptr %6, align 4
  %9 = icmp eq i32 %8, 0
  %10 = getelementptr inbounds nuw i8, ptr %2, i64 16
  %11 = load ptr, ptr %10, align 8
  %12 = getelementptr inbounds nuw i8, ptr %11, i64 408
  %13 = load ptr, ptr %12, align 8
  %14 = load i32, ptr @proto_nbap, align 4
  %15 = call ptr @p_get_proto_data(ptr noundef %13, ptr noundef %11, i32 noundef %14, i32 noundef 0)
  %16 = icmp eq ptr %15, null
  br i1 %9, label %17, label %31

17:                                               ; preds = %5
  br i1 %16, label %18, label %nbap_get_private_data.exit

18:                                               ; preds = %17
  %19 = load ptr, ptr %12, align 8
  %20 = call noalias dereferenceable_or_null(268056) ptr @wmem_alloc0(ptr noundef %19, i64 noundef 268056) #10
  %21 = load ptr, ptr %12, align 8
  %22 = load i32, ptr @proto_nbap, align 4
  call void @p_add_proto_data(ptr noundef %21, ptr noundef %11, i32 noundef %22, i32 noundef 0, ptr noundef %20)
  %23 = getelementptr inbounds nuw i8, ptr %20, i64 68
  store i32 3, ptr %23, align 4
  %24 = getelementptr inbounds nuw i8, ptr %20, i64 108
  store i8 0, ptr %24, align 4
  %25 = getelementptr inbounds nuw i8, ptr %20, i64 12
  store i32 65535, ptr %25, align 4
  %26 = getelementptr inbounds nuw i8, ptr %20, i64 40
  store i32 65535, ptr %26, align 8
  %27 = getelementptr inbounds nuw i8, ptr %20, i64 109
  store i8 2, ptr %27, align 1
  %28 = getelementptr i8, ptr %20, i64 267508
  br label %29

29:                                               ; preds = %29, %18
  %indvars.iv.i = phi i64 [ 0, %18 ], [ %indvars.iv.next.i, %29 ]
  %.idx.i = mul nuw nsw i64 %indvars.iv.i, 40
  %30 = getelementptr i8, ptr %28, i64 %.idx.i
  store i8 1, ptr %30, align 4
  %indvars.iv.next.i = add nuw nsw i64 %indvars.iv.i, 1
  %exitcond.not.i = icmp eq i64 %indvars.iv.next.i, 8
  br i1 %exitcond.not.i, label %nbap_get_private_data.exit, label %29, !llvm.loop !9

31:                                               ; preds = %5
  br i1 %16, label %32, label %nbap_get_private_data.exit

32:                                               ; preds = %31
  %33 = load ptr, ptr %12, align 8
  %34 = call noalias dereferenceable_or_null(268056) ptr @wmem_alloc0(ptr noundef %33, i64 noundef 268056) #10
  %35 = load ptr, ptr %12, align 8
  %36 = load i32, ptr @proto_nbap, align 4
  call void @p_add_proto_data(ptr noundef %35, ptr noundef %11, i32 noundef %36, i32 noundef 0, ptr noundef %34)
  %37 = getelementptr inbounds nuw i8, ptr %34, i64 68
  store i32 3, ptr %37, align 4
  %38 = getelementptr inbounds nuw i8, ptr %34, i64 108
  store i8 0, ptr %38, align 4
  %39 = getelementptr inbounds nuw i8, ptr %34, i64 12
  store i32 65535, ptr %39, align 4
  %40 = getelementptr inbounds nuw i8, ptr %34, i64 40
  store i32 65535, ptr %40, align 8
  %41 = getelementptr inbounds nuw i8, ptr %34, i64 109
  store i8 2, ptr %41, align 1
  %42 = getelementptr i8, ptr %34, i64 267508
  br label %43

43:                                               ; preds = %43, %32
  %indvars.iv.i8 = phi i64 [ 0, %32 ], [ %indvars.iv.next.i10, %43 ]
  %.idx.i9 = mul nuw nsw i64 %indvars.iv.i8, 40
  %44 = getelementptr i8, ptr %42, i64 %.idx.i9
  store i8 1, ptr %44, align 4
  %indvars.iv.next.i10 = add nuw nsw i64 %indvars.iv.i8, 1
  %exitcond.not.i11 = icmp eq i64 %indvars.iv.next.i10, 8
  br i1 %exitcond.not.i11, label %nbap_get_private_data.exit, label %43, !llvm.loop !9

nbap_get_private_data.exit:                       ; preds = %43, %29, %31, %17
  %.0.i7.sink = phi ptr [ %15, %17 ], [ %15, %31 ], [ %20, %29 ], [ %34, %43 ]
  %.sink = phi i8 [ 1, %17 ], [ 0, %31 ], [ 1, %29 ], [ 0, %43 ]
  %45 = getelementptr inbounds nuw i8, ptr %.0.i7.sink, i64 109
  store i8 %.sink, ptr %45, align 1
  call void @llvm.lifetime.end.p0(i64 4, ptr nonnull %6) #9
  ret i32 %7
}